; Function Attrs: mustprogress uwtable
define noundef i32 @_ZN6colvar14distance_pairs4initERKNSt7__cxx1112basic_stringIcSt11char_traitsIcESaIcEEE(ptr noundef nonnull align 8 dereferenceable(1624) %0, ptr noundef nonnull align 8 dereferenceable(32) %1) unnamed_addr #2 align 2 personality ptr @__gxx_personality_v0 {
  %3 = tail call noundef i32 @_ZN6colvar3cvc4initERKNSt7__cxx1112basic_stringIcSt11char_traitsIcESaIcEEE(ptr noundef nonnull align 8 dereferenceable(1608) %0, ptr noundef nonnull align 8 dereferenceable(32) %1)
  %4 = tail call noundef ptr @_ZN6colvar3cvc11parse_groupERKNSt7__cxx1112basic_stringIcSt11char_traitsIcESaIcEEEPKcb(ptr noundef nonnull align 8 dereferenceable(1608) %0, ptr noundef nonnull align 8 dereferenceable(32) %1, ptr noundef nonnull @.str.2, i1 noundef zeroext false)
  %5 = getelementptr inbounds nuw i8, ptr %0, i64 1608
  store ptr %4, ptr %5, align 8, !tbaa !269
  %6 = tail call noundef ptr @_ZN6colvar3cvc11parse_groupERKNSt7__cxx1112basic_stringIcSt11char_traitsIcESaIcEEEPKcb(ptr noundef nonnull align 8 dereferenceable(1608) %0, ptr noundef nonnull align 8 dereferenceable(32) %1, ptr noundef nonnull @.str.3, i1 noundef zeroext false)
  %7 = getelementptr inbounds nuw i8, ptr %0, i64 1616
  store ptr %6, ptr %7, align 8, !tbaa !271
  %8 = getelementptr inbounds nuw i8, ptr %0, i64 664
  %9 = load ptr, ptr %5, align 8, !tbaa !269
  %10 = getelementptr inbounds nuw i8, ptr %9, i64 504
  %11 = getelementptr inbounds nuw i8, ptr %9, i64 512
  %12 = load ptr, ptr %11, align 8, !tbaa !264
  %13 = load ptr, ptr %10, align 8, !tbaa !265
  %14 = ptrtoint ptr %12 to i64
  %15 = ptrtoint ptr %13 to i64
  %16 = sub i64 %14, %15
  %17 = sdiv exact i64 %16, 120
  %18 = getelementptr inbounds nuw i8, ptr %6, i64 504
  %19 = getelementptr inbounds nuw i8, ptr %6, i64 512
  %20 = load ptr, ptr %19, align 8, !tbaa !264
  %21 = load ptr, ptr %18, align 8, !tbaa !265
  %22 = ptrtoint ptr %20 to i64
  %23 = ptrtoint ptr %21 to i64
  %24 = sub i64 %22, %23
  %25 = sdiv exact i64 %24, 120
  %26 = mul i64 %25, %17
  %27 = getelementptr inbounds nuw i8, ptr %0, i64 672
  %28 = load ptr, ptr %27, align 8, !tbaa !272
  %29 = load ptr, ptr %8, align 8, !tbaa !273
  %30 = ptrtoint ptr %28 to i64
  %31 = ptrtoint ptr %29 to i64
  %32 = sub i64 %30, %31
  %33 = ashr exact i64 %32, 3
  %34 = icmp ugt i64 %26, %33
  br i1 %34, label %35, label %37

35:                                               ; preds = %2
  %36 = sub nuw i64 %26, %33
  tail call void @_ZNSt6vectorIdSaIdEE17_M_default_appendEm(ptr noundef nonnull align 8 dereferenceable(24) %8, i64 noundef %36)
  br label %_ZN12colvarmodule8vector1dIdE6resizeEm.exit

37:                                               ; preds = %2
  %38 = icmp ult i64 %26, %33
  br i1 %38, label %39, label %_ZN12colvarmodule8vector1dIdE6resizeEm.exit

39:                                               ; preds = %37
  %40 = getelementptr inbounds nuw double, ptr %29, i64 %26
  %.not.i.i.i = icmp eq ptr %28, %40
  br i1 %.not.i.i.i, label %_ZN12colvarmodule8vector1dIdE6resizeEm.exit, label %41

41:                                               ; preds = %39
  store ptr %40, ptr %27, align 8, !tbaa !272
  br label %_ZN12colvarmodule8vector1dIdE6resizeEm.exit

_ZN12colvarmodule8vector1dIdE6resizeEm.exit:      ; preds = %35, %37, %39, %41
  ret i32 %3
}